target datalayout = "e-m:e-p270:32:32-p271:32:32-p272:64:64-i64:64-i128:128-f80:128-n8:16:32:64-S128"
target triple = "x86_64-pc-linux-gnu"

%struct.Abc_Ntk_t_ = type { i32, i32, ptr, ptr, ptr, ptr, ptr, ptr, ptr, ptr, ptr, ptr, ptr, [11 x i32], i32, i32, i32, i32, ptr, i32, ptr, ptr, i32, i32, i32, double, i32, %struct.Vec_Int_t_, ptr, ptr, ptr, ptr, ptr, float, i32, ptr, ptr, ptr, ptr, ptr, ptr, ptr, ptr, ptr, ptr, ptr, ptr, ptr, ptr, ptr, ptr, ptr, ptr, ptr, ptr, ptr, ptr }
%struct.Vec_Int_t_ = type { i32, i32, ptr }
%struct.Abc_Obj_t_ = type { ptr, ptr, i32, i32, %struct.Vec_Int_t_, %struct.Vec_Int_t_, %union.anon, %union.anon.0 }
%union.anon = type { ptr }
%union.anon.0 = type { ptr }

@Ptr_HopToType.uTruth = internal global i64 0, align 8
@Ptr_HopToType.uTruths6 = internal global [3 x i64] [i64 -6148914691236517206, i64 -3689348814741910324, i64 -1085102592571150096], align 16
@.str = private unnamed_addr constant [8 x i8] c"Const0T\00", align 1
@.str.1 = private unnamed_addr constant [8 x i8] c"Const1T\00", align 1
@.str.2 = private unnamed_addr constant [5 x i8] c"BufT\00", align 1
@.str.3 = private unnamed_addr constant [5 x i8] c"InvT\00", align 1
@.str.4 = private unnamed_addr constant [5 x i8] c"AndT\00", align 1
@.str.5 = private unnamed_addr constant [6 x i8] c"NandT\00", align 1
@.str.6 = private unnamed_addr constant [4 x i8] c"OrT\00", align 1
@.str.7 = private unnamed_addr constant [5 x i8] c"NorT\00", align 1
@.str.8 = private unnamed_addr constant [5 x i8] c"XorT\00", align 1
@.str.9 = private unnamed_addr constant [6 x i8] c"XnorT\00", align 1

; Function Attrs: inlinehint nounwind uwtable
define internal i32 @Abc_ObjFaninNum(ptr noundef %0) #2 {
  %2 = alloca ptr, align 8
  store ptr %0, ptr %2, align 8, !tbaa !3
  %3 = load ptr, ptr %2, align 8, !tbaa !3
  %4 = getelementptr inbounds nuw %struct.Abc_Obj_t_, ptr %3, i32 0, i32 4
  %5 = getelementptr inbounds nuw %struct.Vec_Int_t_, ptr %4, i32 0, i32 1
  %6 = load i32, ptr %5, align 4, !tbaa !31
  ret i32 %6
}

; Function Attrs: inlinehint nounwind uwtable
define internal ptr @Abc_ObjNtk(ptr noundef %0) #2 {
  %2 = alloca ptr, align 8
  store ptr %0, ptr %2, align 8, !tbaa !3
  %3 = load ptr, ptr %2, align 8, !tbaa !3
  %4 = getelementptr inbounds nuw %struct.Abc_Obj_t_, ptr %3, i32 0, i32 0
  %5 = load ptr, ptr %4, align 8, !tbaa !29
  ret ptr %5
}

; Function Attrs: nounwind uwtable
define ptr @Ptr_HopToType(ptr noundef %0) #0 {
  %2 = alloca ptr, align 8
  %3 = alloca ptr, align 8
  store ptr %0, ptr %3, align 8, !tbaa !3
  %4 = load ptr, ptr %3, align 8, !tbaa !3
  %5 = call ptr @Abc_ObjNtk(ptr noundef %4)
  %6 = getelementptr inbounds nuw %struct.Abc_Ntk_t_, ptr %5, i32 0, i32 30
  %7 = load ptr, ptr %6, align 8, !tbaa !8
  %8 = load ptr, ptr %3, align 8, !tbaa !3
  %9 = getelementptr inbounds nuw %struct.Abc_Obj_t_, ptr %8, i32 0, i32 6
  %10 = load ptr, ptr %9, align 8, !tbaa !26
  %11 = load ptr, ptr %3, align 8, !tbaa !3
  %12 = call i32 @Abc_ObjFaninNum(ptr noundef %11)
  %13 = call i64 @Hop_ManComputeTruth6(ptr noundef %7, ptr noundef %10, i32 noundef %12)
  store i64 %13, ptr @Ptr_HopToType.uTruth, align 8, !tbaa !27
  %14 = load i64, ptr @Ptr_HopToType.uTruth, align 8, !tbaa !27
  %15 = icmp eq i64 %14, 0
  br i1 %15, label %16, label %17

16:                                               ; preds = %1
  store ptr @.str, ptr %2, align 8
  br label %78

17:                                               ; preds = %1
  %18 = load i64, ptr @Ptr_HopToType.uTruth, align 8, !tbaa !27
  %19 = icmp eq i64 %18, -1
  br i1 %19, label %20, label %21

20:                                               ; preds = %17
  store ptr @.str.1, ptr %2, align 8
  br label %78

21:                                               ; preds = %17
  %22 = load i64, ptr @Ptr_HopToType.uTruth, align 8, !tbaa !27
  %23 = load i64, ptr @Ptr_HopToType.uTruths6, align 16, !tbaa !27
  %24 = icmp eq i64 %22, %23
  br i1 %24, label %25, label %26

25:                                               ; preds = %21
  store ptr @.str.2, ptr %2, align 8
  br label %78

26:                                               ; preds = %21
  %27 = load i64, ptr @Ptr_HopToType.uTruth, align 8, !tbaa !27
  %28 = load i64, ptr @Ptr_HopToType.uTruths6, align 16, !tbaa !27
  %29 = xor i64 %28, -1
  %30 = icmp eq i64 %27, %29
  br i1 %30, label %31, label %32

31:                                               ; preds = %26
  store ptr @.str.3, ptr %2, align 8
  br label %78

32:                                               ; preds = %26
  %33 = load i64, ptr @Ptr_HopToType.uTruth, align 8, !tbaa !27
  %34 = load i64, ptr @Ptr_HopToType.uTruths6, align 16, !tbaa !27
  %35 = load i64, ptr getelementptr inbounds ([3 x i64], ptr @Ptr_HopToType.uTruths6, i64 0, i64 1), align 8, !tbaa !27
  %36 = and i64 %34, %35
  %37 = icmp eq i64 %33, %36
  br i1 %37, label %38, label %39

38:                                               ; preds = %32
  store ptr @.str.4, ptr %2, align 8
  br label %78

39:                                               ; preds = %32
  %40 = load i64, ptr @Ptr_HopToType.uTruth, align 8, !tbaa !27
  %41 = load i64, ptr @Ptr_HopToType.uTruths6, align 16, !tbaa !27
  %42 = load i64, ptr getelementptr inbounds ([3 x i64], ptr @Ptr_HopToType.uTruths6, i64 0, i64 1), align 8, !tbaa !27
  %43 = and i64 %41, %42
  %44 = xor i64 %43, -1
  %45 = icmp eq i64 %40, %44
  br i1 %45, label %46, label %47

46:                                               ; preds = %39
  store ptr @.str.5, ptr %2, align 8
  br label %78

47:                                               ; preds = %39
  %48 = load i64, ptr @Ptr_HopToType.uTruth, align 8, !tbaa !27
  %49 = load i64, ptr @Ptr_HopToType.uTruths6, align 16, !tbaa !27
  %50 = load i64, ptr getelementptr inbounds ([3 x i64], ptr @Ptr_HopToType.uTruths6, i64 0, i64 1), align 8, !tbaa !27
  %51 = or i64 %49, %50
  %52 = icmp eq i64 %48, %51
  br i1 %52, label %53, label %54

53:                                               ; preds = %47
  store ptr @.str.6, ptr %2, align 8
  br label %78

54:                                               ; preds = %47
  %55 = load i64, ptr @Ptr_HopToType.uTruth, align 8, !tbaa !27
  %56 = load i64, ptr @Ptr_HopToType.uTruths6, align 16, !tbaa !27
  %57 = load i64, ptr getelementptr inbounds ([3 x i64], ptr @Ptr_HopToType.uTruths6, i64 0, i64 1), align 8, !tbaa !27
  %58 = or i64 %56, %57
  %59 = xor i64 %58, -1
  %60 = icmp eq i64 %55, %59
  br i1 %60, label %61, label %62

61:                                               ; preds = %54
  store ptr @.str.7, ptr %2, align 8
  br label %78

62:                                               ; preds = %54
  %63 = load i64, ptr @Ptr_HopToType.uTruth, align 8, !tbaa !27
  %64 = load i64, ptr @Ptr_HopToType.uTruths6, align 16, !tbaa !27
  %65 = load i64, ptr getelementptr inbounds ([3 x i64], ptr @Ptr_HopToType.uTruths6, i64 0, i64 1), align 8, !tbaa !27
  %66 = xor i64 %64, %65
  %67 = icmp eq i64 %63, %66
  br i1 %67, label %68, label %69

68:                                               ; preds = %62
  store ptr @.str.8, ptr %2, align 8
  br label %78

69:                                               ; preds = %62
  %70 = load i64, ptr @Ptr_HopToType.uTruth, align 8, !tbaa !27
  %71 = load i64, ptr @Ptr_HopToType.uTruths6, align 16, !tbaa !27
  %72 = load i64, ptr getelementptr inbounds ([3 x i64], ptr @Ptr_HopToType.uTruths6, i64 0, i64 1), align 8, !tbaa !27
  %73 = xor i64 %71, %72
  %74 = xor i64 %73, -1
  %75 = icmp eq i64 %70, %74
  br i1 %75, label %76, label %77

76:                                               ; preds = %69
  store ptr @.str.9, ptr %2, align 8
  br label %78

77:                                               ; preds = %69
  store ptr null, ptr %2, align 8
  br label %78

78:                                               ; preds = %77, %76, %68, %61, %53, %46, %38, %31, %25, %20, %16
  %79 = load ptr, ptr %2, align 8
  ret ptr %79
}