; Function Attrs: nounwind uwtable
define noundef ptr @Ptr_HopToType(ptr noundef readonly captures(none) %0) local_unnamed_addr #0 {
  %.val = load ptr, ptr %0, align 8, !tbaa !3
  %2 = getelementptr inbounds nuw i8, ptr %.val, i64 256
  %3 = load ptr, ptr %2, align 8, !tbaa !13
  %4 = getelementptr inbounds nuw i8, ptr %0, i64 56
  %5 = load ptr, ptr %4, align 8, !tbaa !27
  %6 = getelementptr i8, ptr %0, i64 28
  %.val9 = load i32, ptr %6, align 4, !tbaa !28
  %7 = tail call i64 @Hop_ManComputeTruth6(ptr noundef %3, ptr noundef %5, i32 noundef %.val9) #19
  switch i64 %7, label %17 [
    i64 0, label %18
    i64 -1, label %8
    i64 -6148914691236517206, label %9
    i64 6148914691236517205, label %10
    i64 -8608480567731124088, label %11
    i64 8608480567731124087, label %12
    i64 -1229782938247303442, label %13
    i64 1229782938247303441, label %14
    i64 7378697629483820646, label %15
    i64 -7378697629483820647, label %16
  ]

8:                                                ; preds = %1
  br label %18

9:                                                ; preds = %1
  br label %18

10:                                               ; preds = %1
  br label %18

11:                                               ; preds = %1
  br label %18

12:                                               ; preds = %1
  br label %18

13:                                               ; preds = %1
  br label %18

14:                                               ; preds = %1
  br label %18

15:                                               ; preds = %1
  br label %18

16:                                               ; preds = %1
  br label %18

17:                                               ; preds = %1
  br label %18

18:                                               ; preds = %1, %17, %16, %15, %14, %13, %12, %11, %10, %9, %8
  %.0 = phi ptr [ @.str.1, %8 ], [ @.str.2, %9 ], [ @.str.3, %10 ], [ @.str.4, %11 ], [ @.str.5, %12 ], [ @.str.6, %13 ], [ @.str.7, %14 ], [ @.str.8, %15 ], [ @.str.9, %16 ], [ null, %17 ], [ @.str, %1 ]
  ret ptr %.0
}